target datalayout = "e-m:e-p270:32:32-p271:32:32-p272:64:64-i64:64-i128:128-f80:128-n8:16:32:64-S128"
target triple = "x86_64-pc-linux-gnu"

%"class.std::basic_ostream" = type { ptr, %"class.std::basic_ios" }
%"class.std::basic_ios" = type { %"class.std::ios_base", ptr, i8, i8, ptr, ptr, ptr, ptr }
%"class.std::ios_base" = type { ptr, i64, i64, i32, i32, i32, ptr, %"struct.std::ios_base::_Words", [8 x %"struct.std::ios_base::_Words"], i32, ptr, %"class.std::locale" }
%"struct.std::ios_base::_Words" = type { ptr, i64 }
%"class.std::locale" = type { ptr }
%"class.testing::internal::GTestLog" = type { i32 }

@.str.43 = private unnamed_addr constant [132 x i8] c"generated/home/dtcxzyw/WorkSpace/Projects/compilers/llvm-opt-benchmark/bench/opencv/opencv/modules/ts/include/opencv2/ts/ts_gtest.h\00", align 1
@_ZSt4cerr = external global %"class.std::basic_ostream", align 8
@_ZN7testing8internal12g_parameter_E = external global ptr, align 8
@.str.51 = private unnamed_addr constant [49 x i8] c"Condition GetParameterPtrRef_() != NULL failed. \00", align 1
@.str.52 = private unnamed_addr constant [65 x i8] c"GetParam() can only be called inside a value-parameterized test \00", align 1
@.str.53 = private unnamed_addr constant [53 x i8] c"-- did you intend to write TEST_P instead of TEST_F?\00", align 1

; Function Attrs: inlinehint mustprogress nounwind uwtable
define linkonce_odr dso_local noundef i32 @_ZStorSt12_Ios_IostateS_(i32 noundef %0, i32 noundef %1) #4 comdat {
  %3 = alloca i32, align 4
  %4 = alloca i32, align 4
  store i32 %0, ptr %3, align 4, !tbaa !105
  store i32 %1, ptr %4, align 4, !tbaa !105
  %5 = load i32, ptr %3, align 4, !tbaa !105
  %6 = load i32, ptr %4, align 4, !tbaa !105
  %7 = or i32 %5, %6
  ret i32 %7
}

; Function Attrs: mustprogress nounwind uwtable
define available_externally noundef i32 @_ZNKSt9basic_iosIcSt11char_traitsIcEE7rdstateEv(ptr noundef nonnull align 8 dereferenceable(264) %0) #7 align 2 {
  %2 = alloca ptr, align 8
  store ptr %0, ptr %2, align 8, !tbaa !103
  %3 = load ptr, ptr %2, align 8
  %4 = getelementptr inbounds nuw %"class.std::ios_base", ptr %3, i32 0, i32 5
  %5 = load i32, ptr %4, align 8, !tbaa !107
  ret i32 %5
}

; Function Attrs: mustprogress nounwind uwtable
define linkonce_odr hidden noundef i64 @_ZNSt11char_traitsIcE6lengthEPKc(ptr noundef %0) #7 comdat align 2 {
  %2 = alloca ptr, align 8
  store ptr %0, ptr %2, align 8, !tbaa !16
  %3 = load ptr, ptr %2, align 8, !tbaa !16
  %4 = call i64 @strlen(ptr noundef %3) #3
  ret i64 %4
}

; Function Attrs: mustprogress uwtable
define available_externally void @_ZNSt9basic_iosIcSt11char_traitsIcEE8setstateESt12_Ios_Iostate(ptr noundef nonnull align 8 dereferenceable(264) %0, i32 noundef %1) #6 align 2 {
  %3 = alloca ptr, align 8
  %4 = alloca i32, align 4
  store ptr %0, ptr %3, align 8, !tbaa !103
  store i32 %1, ptr %4, align 4, !tbaa !105
  %5 = load ptr, ptr %3, align 8
  %6 = call noundef i32 @_ZNKSt9basic_iosIcSt11char_traitsIcEE7rdstateEv(ptr noundef nonnull align 8 dereferenceable(264) %5)
  %7 = load i32, ptr %4, align 4, !tbaa !105
  %8 = call noundef i32 @_ZStorSt12_Ios_IostateS_(i32 noundef %6, i32 noundef %7)
  call void @_ZNSt9basic_iosIcSt11char_traitsIcEE5clearESt12_Ios_Iostate(ptr noundef nonnull align 8 dereferenceable(264) %5, i32 noundef %8)
  ret void
}

; Function Attrs: inlinehint mustprogress uwtable
define available_externally noundef nonnull align 8 dereferenceable(8) ptr @_ZStlsISt11char_traitsIcEERSt13basic_ostreamIcT_ES5_PKc(ptr noundef nonnull align 8 dereferenceable(8) %0, ptr noundef %1) #10 {
  %3 = alloca ptr, align 8
  %4 = alloca ptr, align 8
  store ptr %0, ptr %3, align 8, !tbaa !99
  store ptr %1, ptr %4, align 8, !tbaa !16
  %5 = load ptr, ptr %4, align 8, !tbaa !16
  %6 = icmp ne ptr %5, null
  br i1 %6, label %13, label %7

7:                                                ; preds = %2
  %8 = load ptr, ptr %3, align 8, !tbaa !99
  %9 = load ptr, ptr %8, align 8, !tbaa !24
  %10 = getelementptr i8, ptr %9, i64 -24
  %11 = load i64, ptr %10, align 8
  %12 = getelementptr inbounds i8, ptr %8, i64 %11
  call void @_ZNSt9basic_iosIcSt11char_traitsIcEE8setstateESt12_Ios_Iostate(ptr noundef nonnull align 8 dereferenceable(264) %12, i32 noundef 1)
  br label %19

13:                                               ; preds = %2
  %14 = load ptr, ptr %3, align 8, !tbaa !99
  %15 = load ptr, ptr %4, align 8, !tbaa !16
  %16 = load ptr, ptr %4, align 8, !tbaa !16
  %17 = call noundef i64 @_ZNSt11char_traitsIcE6lengthEPKc(ptr noundef %16)
  %18 = call noundef nonnull align 8 dereferenceable(8) ptr @_ZSt16__ostream_insertIcSt11char_traitsIcEERSt13basic_ostreamIT_T0_ES6_PKS3_l(ptr noundef nonnull align 8 dereferenceable(8) %14, ptr noundef %15, i64 noundef %17)
  br label %19

19:                                               ; preds = %13, %7
  %20 = load ptr, ptr %3, align 8, !tbaa !99
  ret ptr %20
}

; Function Attrs: mustprogress nounwind uwtable
define linkonce_odr hidden noundef nonnull align 8 dereferenceable(8) ptr @_ZN7testing8internal8GTestLog9GetStreamEv(ptr noundef nonnull align 4 dereferenceable(4) %0) #7 comdat align 2 {
  %2 = alloca ptr, align 8
  store ptr %0, ptr %2, align 8, !tbaa !101
  ret ptr @_ZSt4cerr
}

; Function Attrs: mustprogress nounwind uwtable
define internal noundef nonnull align 8 dereferenceable(8) ptr @_ZN7testing18WithParamInterfaceISt5tupleIJS1_IJiiEEN11opencv_test12_GLOBAL__N_112_GLOBAL__N_18RankEnumEN4perf12_GLOBAL__N_18MatDepthEbbEEE19GetParameterPtrRef_Ev() #7 align 2 {
  ret ptr @_ZN7testing8internal12g_parameter_E
}

; Function Attrs: mustprogress uwtable
define internal noundef nonnull align 4 dereferenceable(20) ptr @_ZNK7testing18WithParamInterfaceISt5tupleIJS1_IJiiEEN11opencv_test12_GLOBAL__N_112_GLOBAL__N_18RankEnumEN4perf12_GLOBAL__N_18MatDepthEbbEEE8GetParamEv(ptr noundef nonnull align 8 dereferenceable(8) %0) #6 align 2 personality ptr @__gxx_personality_v0 {
  %2 = alloca ptr, align 8
  %3 = alloca %"class.testing::internal::GTestLog", align 4
  %4 = alloca ptr, align 8
  %5 = alloca i32, align 4
  store ptr %0, ptr %2, align 8, !tbaa !1003
  %6 = call noundef nonnull align 8 dereferenceable(8) ptr @_ZN7testing18WithParamInterfaceISt5tupleIJS1_IJiiEEN11opencv_test12_GLOBAL__N_112_GLOBAL__N_18RankEnumEN4perf12_GLOBAL__N_18MatDepthEbbEEE19GetParameterPtrRef_Ev()
  %7 = load ptr, ptr %6, align 8, !tbaa !987
  %8 = icmp ne ptr %7, null
  %9 = call noundef zeroext i1 @_ZN7testing8internal6IsTrueEb(i1 noundef zeroext %8)
  br i1 %9, label %10, label %11

10:                                               ; preds = %1
  br label %23

11:                                               ; preds = %1
  call void @llvm.lifetime.start.p0(i64 4, ptr %3) #3
  call void @_ZN7testing8internal8GTestLogC1ENS0_16GTestLogSeverityEPKci(ptr noundef nonnull align 4 dereferenceable(4) %3, i32 noundef 3, ptr noundef @.str.43, i32 noundef 21704)
  %12 = call noundef nonnull align 8 dereferenceable(8) ptr @_ZN7testing8internal8GTestLog9GetStreamEv(ptr noundef nonnull align 4 dereferenceable(4) %3)
  %13 = invoke noundef nonnull align 8 dereferenceable(8) ptr @_ZStlsISt11char_traitsIcEERSt13basic_ostreamIcT_ES5_PKc(ptr noundef nonnull align 8 dereferenceable(8) %12, ptr noundef @.str.51)
          to label %14 unwind label %19

14:                                               ; preds = %11
  %15 = invoke noundef nonnull align 8 dereferenceable(8) ptr @_ZStlsISt11char_traitsIcEERSt13basic_ostreamIcT_ES5_PKc(ptr noundef nonnull align 8 dereferenceable(8) %13, ptr noundef @.str.52)
          to label %16 unwind label %19

16:                                               ; preds = %14
  %17 = invoke noundef nonnull align 8 dereferenceable(8) ptr @_ZStlsISt11char_traitsIcEERSt13basic_ostreamIcT_ES5_PKc(ptr noundef nonnull align 8 dereferenceable(8) %15, ptr noundef @.str.53)
          to label %18 unwind label %19

18:                                               ; preds = %16
  call void @_ZN7testing8internal8GTestLogD1Ev(ptr noundef nonnull align 4 dereferenceable(4) %3) #3
  call void @llvm.lifetime.end.p0(i64 4, ptr %3) #3
  br label %23

19:                                               ; preds = %16, %14, %11
  %20 = landingpad { ptr, i32 }
          cleanup
  %21 = extractvalue { ptr, i32 } %20, 0
  store ptr %21, ptr %4, align 8
  %22 = extractvalue { ptr, i32 } %20, 1
  store i32 %22, ptr %5, align 4
  call void @_ZN7testing8internal8GTestLogD1Ev(ptr noundef nonnull align 4 dereferenceable(4) %3) #3
  call void @llvm.lifetime.end.p0(i64 4, ptr %3) #3
  br label %26

23:                                               ; preds = %18, %10
  %24 = call noundef nonnull align 8 dereferenceable(8) ptr @_ZN7testing18WithParamInterfaceISt5tupleIJS1_IJiiEEN11opencv_test12_GLOBAL__N_112_GLOBAL__N_18RankEnumEN4perf12_GLOBAL__N_18MatDepthEbbEEE19GetParameterPtrRef_Ev()
  %25 = load ptr, ptr %24, align 8, !tbaa !987
  ret ptr %25

26:                                               ; preds = %19
  %27 = load ptr, ptr %4, align 8
  %28 = load i32, ptr %5, align 4
  %29 = insertvalue { ptr, i32 } poison, ptr %27, 0
  %30 = insertvalue { ptr, i32 } %29, i32 %28, 1
  resume { ptr, i32 } %30
}