; Function Attrs: mustprogress uwtable
define internal fastcc noundef nonnull align 4 dereferenceable(20) ptr @_ZNK7testing18WithParamInterfaceISt5tupleIJS1_IJiiEEN11opencv_test12_GLOBAL__N_112_GLOBAL__N_18RankEnumEN4perf12_GLOBAL__N_18MatDepthEbbEEE8GetParamEv() unnamed_addr #4 align 2 personality ptr @__gxx_personality_v0 {
  %1 = alloca %"class.testing::internal::GTestLog", align 4
  %2 = load ptr, ptr @_ZN7testing8internal12g_parameter_E, align 8, !tbaa !701
  %3 = icmp ne ptr %2, null
  %4 = tail call noundef zeroext i1 @_ZN7testing8internal6IsTrueEb(i1 noundef zeroext %3)
  br i1 %4, label %11, label %5

5:                                                ; preds = %0
  call void @llvm.lifetime.start.p0(i64 4, ptr nonnull %1) #30
  call void @_ZN7testing8internal8GTestLogC1ENS0_16GTestLogSeverityEPKci(ptr noundef nonnull align 4 dereferenceable(4) %1, i32 noundef 3, ptr noundef nonnull @.str.43, i32 noundef 21704)
  %6 = invoke noundef nonnull align 8 dereferenceable(8) ptr @_ZSt16__ostream_insertIcSt11char_traitsIcEERSt13basic_ostreamIT_T0_ES6_PKS3_l(ptr noundef nonnull align 8 dereferenceable(8) @_ZSt4cerr, ptr noundef nonnull @.str.51, i64 noundef 48)
          to label %_ZStlsISt11char_traitsIcEERSt13basic_ostreamIcT_ES5_PKc.exit unwind label %9

_ZStlsISt11char_traitsIcEERSt13basic_ostreamIcT_ES5_PKc.exit: ; preds = %5
  %7 = invoke noundef nonnull align 8 dereferenceable(8) ptr @_ZSt16__ostream_insertIcSt11char_traitsIcEERSt13basic_ostreamIT_T0_ES6_PKS3_l(ptr noundef nonnull align 8 dereferenceable(8) @_ZSt4cerr, ptr noundef nonnull @.str.52, i64 noundef 64)
          to label %_ZStlsISt11char_traitsIcEERSt13basic_ostreamIcT_ES5_PKc.exit1 unwind label %9

_ZStlsISt11char_traitsIcEERSt13basic_ostreamIcT_ES5_PKc.exit1: ; preds = %_ZStlsISt11char_traitsIcEERSt13basic_ostreamIcT_ES5_PKc.exit
  %8 = invoke noundef nonnull align 8 dereferenceable(8) ptr @_ZSt16__ostream_insertIcSt11char_traitsIcEERSt13basic_ostreamIT_T0_ES6_PKS3_l(ptr noundef nonnull align 8 dereferenceable(8) @_ZSt4cerr, ptr noundef nonnull @.str.53, i64 noundef 52)
          to label %_ZStlsISt11char_traitsIcEERSt13basic_ostreamIcT_ES5_PKc.exit2 unwind label %9

_ZStlsISt11char_traitsIcEERSt13basic_ostreamIcT_ES5_PKc.exit2: ; preds = %_ZStlsISt11char_traitsIcEERSt13basic_ostreamIcT_ES5_PKc.exit1
  call void @_ZN7testing8internal8GTestLogD1Ev(ptr noundef nonnull align 4 dereferenceable(4) %1) #30
  call void @llvm.lifetime.end.p0(i64 4, ptr nonnull %1) #30
  br label %11

9:                                                ; preds = %_ZStlsISt11char_traitsIcEERSt13basic_ostreamIcT_ES5_PKc.exit1, %_ZStlsISt11char_traitsIcEERSt13basic_ostreamIcT_ES5_PKc.exit, %5
  %10 = landingpad { ptr, i32 }
          cleanup
  call void @_ZN7testing8internal8GTestLogD1Ev(ptr noundef nonnull align 4 dereferenceable(4) %1) #30
  call void @llvm.lifetime.end.p0(i64 4, ptr nonnull %1) #30
  resume { ptr, i32 } %10

11:                                               ; preds = %0, %_ZStlsISt11char_traitsIcEERSt13basic_ostreamIcT_ES5_PKc.exit2
  %12 = load ptr, ptr @_ZN7testing8internal12g_parameter_E, align 8, !tbaa !701
  ret ptr %12
}